(dp1
S'SNPs'
p2
ccollections
defaultdict
p3
(c__builtin__
dict
p4
tRp5
S'TotalIndels'
p6
(dp7
S'C.'
p8
ccopy_reg
_reconstructor
p9
(cwub.wrappers.dnadiff
PropertyWithPerc
p10
c__builtin__
tuple
p11
(F4
F3.2000000000000002
F19
F15.199999999999999
ttRp12
sS'.A'
p13
g9
(g10
g11
(F42
F33.600000000000001
F5
F4
ttRp14
sS'.C'
p15
g9
(g10
g11
(F19
F15.199999999999999
F4
F3.2000000000000002
ttRp16
sS'Number'
p17
g9
(cwub.wrappers.dnadiff
Property
p18
g11
(F125
F125
ttRp19
sS'A.'
p20
g9
(g10
g11
(F5
F4
F42
F33.600000000000001
ttRp21
sS'T.'
p22
g9
(g10
g11
(F12
F9.5999999999999996
F31
F24.800000000000001
ttRp23
sS'G.'
p24
g9
(g10
g11
(F1
F0.80000000000000004
F11
F8.8000000000000007
ttRp25
sS'.G'
p26
g9
(g10
g11
(F11
F8.8000000000000007
F1
F0.80000000000000004
ttRp27
sS'.T'
p28
g9
(g10
g11
(F31
F24.800000000000001
F12
F9.5999999999999996
ttRp29
ssS'TotalGSNPs'
p30
(dp31
S'AC'
p32
g9
(g10
g11
(F0
F0
F3
F10.710000000000001
ttRp33
sS'GT'
p34
g9
(g10
g11
(F0
F0
F0
F0
ttRp35
sS'AG'
p36
g9
(g10
g11
(F3
F10.710000000000001
F9
F32.140000000000001
ttRp37
sS'CA'
p38
g9
(g10
g11
(F3
F10.710000000000001
F0
F0
ttRp39
sS'CG'
p40
g9
(g10
g11
(F1
F3.5699999999999998
F1
F3.5699999999999998
ttRp41
sg17
g9
(g18
g11
(F28
F28
ttRp42
sS'GC'
p43
g9
(g10
g11
(F1
F3.5699999999999998
F1
F3.5699999999999998
ttRp44
sS'AT'
p45
g9
(g10
g11
(F0
F0
F2
F7.1399999999999997
ttRp46
sS'GA'
p47
g9
(g10
g11
(F9
F32.140000000000001
F3
F10.710000000000001
ttRp48
sS'TG'
p49
g9
(g10
g11
(F0
F0
F0
F0
ttRp50
sS'TA'
p51
g9
(g10
g11
(F2
F7.1399999999999997
F0
F0
ttRp52
sS'TC'
p53
g9
(g10
g11
(F3
F10.710000000000001
F6
F21.43
ttRp54
sS'CT'
p55
g9
(g10
g11
(F6
F21.43
F3
F10.710000000000001
ttRp56
ssS'TotalGIndels'
p57
(dp58
S'C.'
p59
g9
(g10
g11
(F3
F6
F2
F4
ttRp60
sS'.A'
p61
g9
(g10
g11
(F17
F34
F2
F4
ttRp62
sS'.C'
p63
g9
(g10
g11
(F2
F4
F3
F6
ttRp64
sg17
g9
(g18
g11
(F50
F50
ttRp65
sS'.G'
p66
g9
(g10
g11
(F3
F6
F0
F0
ttRp67
sS'T.'
p68
g9
(g10
g11
(F10
F20
F13
F26
ttRp69
sS'G.'
p70
g9
(g10
g11
(F0
F0
F3
F6
ttRp71
sS'A.'
p72
g9
(g10
g11
(F2
F4
F17
F34
ttRp73
sS'.T'
p74
g9
(g10
g11
(F13
F26
F10
F20
ttRp75
ssS'TotalSNPs'
p76
(dp77
S'AC'
p78
g9
(g10
g11
(F3
F3.3300000000000001
F8
F8.8900000000000006
ttRp79
sS'GT'
p80
g9
(g10
g11
(F1
F1.1100000000000001
F1
F1.1100000000000001
ttRp81
sS'AG'
p82
g9
(g10
g11
(F7
F7.7800000000000002
F26
F28.890000000000001
ttRp83
sS'CA'
p84
g9
(g10
g11
(F8
F8.8900000000000006
F3
F3.3300000000000001
ttRp85
sS'CG'
p86
g9
(g10
g11
(F3
F3.3300000000000001
F2
F2.2200000000000002
ttRp87
sg17
g9
(g18
g11
(F90
F90
ttRp88
sS'GC'
p89
g9
(g10
g11
(F2
F2.2200000000000002
F3
F3.3300000000000001
ttRp90
sS'AT'
p91
g9
(g10
g11
(F6
F6.6699999999999999
F3
F3.3300000000000001
ttRp92
sS'GA'
p93
g9
(g10
g11
(F26
F28.890000000000001
F7
F7.7800000000000002
ttRp94
sS'TG'
p95
g9
(g10
g11
(F1
F1.1100000000000001
F1
F1.1100000000000001
ttRp96
sS'TA'
p97
g9
(g10
g11
(F3
F3.3300000000000001
F6
F6.6699999999999999
ttRp98
sS'TC'
p99
g9
(g10
g11
(F15
F16.670000000000002
F15
F16.670000000000002
ttRp100
sS'CT'
p101
g9
(g10
g11
(F15
F16.670000000000002
F15
F16.670000000000002
ttRp102
sssS'Bases'
p103
(dp104
S'UnalignedBases'
p105
g9
(g10
g11
(F11890873
F97.810000000000002
F0
F0
ttRp106
sS'AlignedBases'
p107
g9
(g10
g11
(F266232
F2.1899999999999999
F36178
F100
ttRp108
sS'TotalBases'
p109
g9
(g18
g11
(F12157105
F36178
ttRp110
ssS'Alignments'
p111
g3
(g4
tRp112
S'1-to-1'
p113
(dp114
S'TotalLength'
p115
g9
(g18
g11
(F40323
F40514
ttRp116
sS'AvgIdentity'
p117
g9
(g18
g11
(F98.569999999999993
F98.569999999999993
ttRp118
sg17
g9
(g18
g11
(F3
F3
ttRp119
sS'AvgLength'
p120
g9
(g18
g11
(F13441
F13504.67
ttRp121
ssS'M-to-M'
p122
(dp123
S'TotalLength'
p124
g9
(g18
g11
(F266809
F267955
ttRp125
sS'AvgIdentity'
p126
g9
(g18
g11
(F96.280000000000001
F96.280000000000001
ttRp127
sg17
g9
(g18
g11
(F131
F131
ttRp128
sS'AvgLength'
p129
g9
(g18
g11
(F2036.71
F2045.46
ttRp130
sssS'Features'
p131
(dp132
S'Insertions'
p133
g9
(g18
g11
(F269
F0
ttRp134
sS'TandemInsAvg'
p135
g9
(g18
g11
(F0
F0
ttRp136
sS'Relocations'
p137
g9
(g18
g11
(F0
F0
ttRp138
sS'InsertionAvg'
p139
g9
(g18
g11
(F44727.059999999998
F0
ttRp140
sS'Breakpoints'
p141
g9
(g18
g11
(F262
F149
ttRp142
sS'TandemInsSum'
p143
g9
(g18
g11
(F0
F0
ttRp144
sS'Inversions'
p145
g9
(g18
g11
(F1
F1
ttRp146
sS'Translocations'
p147
g9
(g18
g11
(F0
F0
ttRp148
sS'InsertionSum'
p149
g9
(g18
g11
(F12031580
F0
ttRp150
sS'TandemIns'
p151
g9
(g18
g11
(F0
F0
ttRp152
ssS'Sequences'
p153
(dp154
S'AlignedSeqs'
p155
g9
(g10
g11
(F16
F94.120000000000005
F2
F100
ttRp156
sS'TotalSeqs'
p157
g9
(g18
g11
(F17
F2
ttRp158
sS'UnalignedSeqs'
p159
g9
(g10
g11
(F1
F5.8799999999999999
F0
F0
ttRp160
ss.