(dp1
S'SNPs'
p2
ccollections
defaultdict
p3
(c__builtin__
dict
p4
tRp5
S'TotalIndels'
p6
(dp7
S'C.'
p8
ccopy_reg
_reconstructor
p9
(cwub.wrappers.dnadiff
PropertyWithPerc
p10
c__builtin__
tuple
p11
(F2
F12.5
F0
F0
ttRp12
sS'.A'
p13
g9
(g10
g11
(F3
F18.75
F3
F18.75
ttRp14
sS'.C'
p15
g9
(g10
g11
(F0
F0
F2
F12.5
ttRp16
sS'Number'
p17
g9
(cwub.wrappers.dnadiff
Property
p18
g11
(F16
F16
ttRp19
sS'A.'
p20
g9
(g10
g11
(F3
F18.75
F3
F18.75
ttRp21
sS'T.'
p22
g9
(g10
g11
(F3
F18.75
F3
F18.75
ttRp23
sS'G.'
p24
g9
(g10
g11
(F0
F0
F2
F12.5
ttRp25
sS'.G'
p26
g9
(g10
g11
(F2
F12.5
F0
F0
ttRp27
sS'.T'
p28
g9
(g10
g11
(F3
F18.75
F3
F18.75
ttRp29
ssS'TotalGSNPs'
p30
(dp31
S'AC'
p32
g9
(g10
g11
(F0
F0
F1
F7.6900000000000004
ttRp33
sS'GT'
p34
g9
(g10
g11
(F0
F0
F0
F0
ttRp35
sS'AG'
p36
g9
(g10
g11
(F1
F7.6900000000000004
F3
F23.079999999999998
ttRp37
sS'CA'
p38
g9
(g10
g11
(F1
F7.6900000000000004
F0
F0
ttRp39
sS'CG'
p40
g9
(g10
g11
(F0
F0
F0
F0
ttRp41
sg17
g9
(g18
g11
(F13
F13
ttRp42
sS'GC'
p43
g9
(g10
g11
(F0
F0
F0
F0
ttRp44
sS'AT'
p45
g9
(g10
g11
(F3
F23.079999999999998
F0
F0
ttRp46
sS'GA'
p47
g9
(g10
g11
(F3
F23.079999999999998
F1
F7.6900000000000004
ttRp48
sS'TG'
p49
g9
(g10
g11
(F0
F0
F0
F0
ttRp50
sS'TA'
p51
g9
(g10
g11
(F0
F0
F3
F23.079999999999998
ttRp52
sS'TC'
p53
g9
(g10
g11
(F4
F30.77
F1
F7.6900000000000004
ttRp54
sS'CT'
p55
g9
(g10
g11
(F1
F7.6900000000000004
F4
F30.77
ttRp56
ssS'TotalGIndels'
p57
(dp58
S'C.'
p59
g9
(g10
g11
(F1
F11.109999999999999
F0
F0
ttRp60
sS'.A'
p61
g9
(g10
g11
(F2
F22.219999999999999
F2
F22.219999999999999
ttRp62
sS'.C'
p63
g9
(g10
g11
(F0
F0
F1
F11.109999999999999
ttRp64
sg17
g9
(g18
g11
(F9
F9
ttRp65
sS'.G'
p66
g9
(g10
g11
(F1
F11.109999999999999
F0
F0
ttRp67
sS'T.'
p68
g9
(g10
g11
(F3
F33.329999999999998
F0
F0
ttRp69
sS'G.'
p70
g9
(g10
g11
(F0
F0
F1
F11.109999999999999
ttRp71
sS'A.'
p72
g9
(g10
g11
(F2
F22.219999999999999
F2
F22.219999999999999
ttRp73
sS'.T'
p74
g9
(g10
g11
(F0
F0
F3
F33.329999999999998
ttRp75
ssS'TotalSNPs'
p76
(dp77
S'AC'
p78
g9
(g10
g11
(F1
F3.8500000000000001
F1
F3.8500000000000001
ttRp79
sS'GT'
p80
g9
(g10
g11
(F1
F3.8500000000000001
F0
F0
ttRp81
sS'AG'
p82
g9
(g10
g11
(F1
F3.8500000000000001
F5
F19.23
ttRp83
sS'CA'
p84
g9
(g10
g11
(F1
F3.8500000000000001
F1
F3.8500000000000001
ttRp85
sS'CG'
p86
g9
(g10
g11
(F0
F0
F0
F0
ttRp87
sg17
g9
(g18
g11
(F26
F26
ttRp88
sS'GC'
p89
g9
(g10
g11
(F0
F0
F0
F0
ttRp90
sS'AT'
p91
g9
(g10
g11
(F4
F15.380000000000001
F0
F0
ttRp92
sS'GA'
p93
g9
(g10
g11
(F5
F19.23
F1
F3.8500000000000001
ttRp94
sS'TG'
p95
g9
(g10
g11
(F0
F0
F1
F3.8500000000000001
ttRp96
sS'CT'
p97
g9
(g10
g11
(F3
F11.539999999999999
F10
F38.460000000000001
ttRp98
sS'TC'
p99
g9
(g10
g11
(F10
F38.460000000000001
F3
F11.539999999999999
ttRp100
sS'TA'
p101
g9
(g10
g11
(F0
F0
F4
F15.380000000000001
ttRp102
sssS'Bases'
p103
(dp104
S'UnalignedBases'
p105
g9
(g10
g11
(F11886054
F97.769999999999996
F0
F0
ttRp106
sS'AlignedBases'
p107
g9
(g10
g11
(F271051
F2.23
F36258
F100
ttRp108
sS'TotalBases'
p109
g9
(g18
g11
(F12157105
F36258
ttRp110
ssS'Alignments'
p111
g3
(g4
tRp112
S'1-to-1'
p113
(dp114
S'TotalLength'
p115
g9
(g18
g11
(F40526
F40552
ttRp116
sS'AvgIdentity'
p117
g9
(g18
g11
(F99.049999999999997
F99.049999999999997
ttRp118
sg17
g9
(g18
g11
(F3
F3
ttRp119
sS'AvgLength'
p120
g9
(g18
g11
(F13508.67
F13517.33
ttRp121
ssS'M-to-M'
p122
(dp123
S'TotalLength'
p124
g9
(g18
g11
(F271631
F271621
ttRp125
sS'AvgIdentity'
p126
g9
(g18
g11
(F96.670000000000002
F96.670000000000002
ttRp127
sg17
g9
(g18
g11
(F132
F132
ttRp128
sS'AvgLength'
p129
g9
(g18
g11
(F2057.8099999999999
F2057.73
ttRp130
sssS'Features'
p131
(dp132
S'Insertions'
p133
g9
(g18
g11
(F270
F0
ttRp134
sS'TandemInsAvg'
p135
g9
(g18
g11
(F0
F0
ttRp136
sS'Relocations'
p137
g9
(g18
g11
(F0
F0
ttRp138
sS'InsertionAvg'
p139
g9
(g18
g11
(F44560.669999999998
F0
ttRp140
sS'Breakpoints'
p141
g9
(g18
g11
(F264
F150
ttRp142
sS'TandemInsSum'
p143
g9
(g18
g11
(F0
F0
ttRp144
sS'Inversions'
p145
g9
(g18
g11
(F1
F1
ttRp146
sS'Translocations'
p147
g9
(g18
g11
(F0
F0
ttRp148
sS'InsertionSum'
p149
g9
(g18
g11
(F12031380
F0
ttRp150
sS'TandemIns'
p151
g9
(g18
g11
(F0
F0
ttRp152
ssS'Sequences'
p153
(dp154
S'AlignedSeqs'
p155
g9
(g10
g11
(F16
F94.120000000000005
F2
F100
ttRp156
sS'TotalSeqs'
p157
g9
(g18
g11
(F17
F2
ttRp158
sS'UnalignedSeqs'
p159
g9
(g10
g11
(F1
F5.8799999999999999
F0
F0
ttRp160
ss.