(dp1
S'SNPs'
p2
ccollections
defaultdict
p3
(c__builtin__
dict
p4
tRp5
S'TotalIndels'
p6
(dp7
S'C.'
p8
ccopy_reg
_reconstructor
p9
(cwub.wrappers.dnadiff
PropertyWithPerc
p10
c__builtin__
tuple
p11
(F55
F14.99
F9
F2.4500000000000002
ttRp12
sS'.A'
p13
g9
(g10
g11
(F11
F3
F125
F34.060000000000002
ttRp14
sS'.C'
p15
g9
(g10
g11
(F9
F2.4500000000000002
F55
F14.99
ttRp16
sS'Number'
p17
g9
(cwub.wrappers.dnadiff
Property
p18
g11
(F367
F367
ttRp19
sS'A.'
p20
g9
(g10
g11
(F125
F34.060000000000002
F11
F3
ttRp21
sS'T.'
p22
g9
(g10
g11
(F94
F25.609999999999999
F9
F2.4500000000000002
ttRp23
sS'G.'
p24
g9
(g10
g11
(F56
F15.26
F8
F2.1800000000000002
ttRp25
sS'.G'
p26
g9
(g10
g11
(F8
F2.1800000000000002
F56
F15.26
ttRp27
sS'.T'
p28
g9
(g10
g11
(F9
F2.4500000000000002
F94
F25.609999999999999
ttRp29
ssS'TotalGSNPs'
p30
(dp31
S'AC'
p32
g9
(g10
g11
(F0
F0
F2
F22.219999999999999
ttRp33
sS'GT'
p34
g9
(g10
g11
(F1
F11.109999999999999
F0
F0
ttRp35
sS'AG'
p36
g9
(g10
g11
(F0
F0
F1
F11.109999999999999
ttRp37
sS'CA'
p38
g9
(g10
g11
(F2
F22.219999999999999
F0
F0
ttRp39
sS'CG'
p40
g9
(g10
g11
(F0
F0
F1
F11.109999999999999
ttRp41
sg17
g9
(g18
g11
(F9
F9
ttRp42
sS'GC'
p43
g9
(g10
g11
(F1
F11.109999999999999
F0
F0
ttRp44
sS'AT'
p45
g9
(g10
g11
(F1
F11.109999999999999
F0
F0
ttRp46
sS'GA'
p47
g9
(g10
g11
(F1
F11.109999999999999
F0
F0
ttRp48
sS'TG'
p49
g9
(g10
g11
(F0
F0
F1
F11.109999999999999
ttRp50
sS'CT'
p51
g9
(g10
g11
(F2
F22.219999999999999
F1
F11.109999999999999
ttRp52
sS'TC'
p53
g9
(g10
g11
(F1
F11.109999999999999
F2
F22.219999999999999
ttRp54
sS'TA'
p55
g9
(g10
g11
(F0
F0
F1
F11.109999999999999
ttRp56
ssS'TotalGIndels'
p57
(dp58
S'C.'
p59
g9
(g10
g11
(F7
F7.4500000000000002
F1
F1.0600000000000001
ttRp60
sS'.A'
p61
g9
(g10
g11
(F4
F4.2599999999999998
F40
F42.549999999999997
ttRp62
sS'.C'
p63
g9
(g10
g11
(F1
F1.0600000000000001
F7
F7.4500000000000002
ttRp64
sg17
g9
(g18
g11
(F94
F94
ttRp65
sS'.G'
p66
g9
(g10
g11
(F1
F1.0600000000000001
F12
F12.77
ttRp67
sS'T.'
p68
g9
(g10
g11
(F26
F27.66
F3
F3.1899999999999999
ttRp69
sS'G.'
p70
g9
(g10
g11
(F12
F12.77
F1
F1.0600000000000001
ttRp71
sS'A.'
p72
g9
(g10
g11
(F40
F42.549999999999997
F4
F4.2599999999999998
ttRp73
sS'.T'
p74
g9
(g10
g11
(F3
F3.1899999999999999
F26
F27.66
ttRp75
ssS'TotalSNPs'
p76
(dp77
S'AC'
p78
g9
(g10
g11
(F2
F5.5599999999999996
F4
F11.109999999999999
ttRp79
sS'GT'
p80
g9
(g10
g11
(F4
F11.109999999999999
F0
F0
ttRp81
sS'AG'
p82
g9
(g10
g11
(F2
F5.5599999999999996
F5
F13.890000000000001
ttRp83
sS'CA'
p84
g9
(g10
g11
(F4
F11.109999999999999
F2
F5.5599999999999996
ttRp85
sS'CG'
p86
g9
(g10
g11
(F1
F2.7799999999999998
F4
F11.109999999999999
ttRp87
sg17
g9
(g18
g11
(F36
F36
ttRp88
sS'GC'
p89
g9
(g10
g11
(F4
F11.109999999999999
F1
F2.7799999999999998
ttRp90
sS'AT'
p91
g9
(g10
g11
(F1
F2.7799999999999998
F0
F0
ttRp92
sS'GA'
p93
g9
(g10
g11
(F5
F13.890000000000001
F2
F5.5599999999999996
ttRp94
sS'TG'
p95
g9
(g10
g11
(F0
F0
F4
F11.109999999999999
ttRp96
sS'TA'
p97
g9
(g10
g11
(F0
F0
F1
F2.7799999999999998
ttRp98
sS'TC'
p99
g9
(g10
g11
(F6
F16.670000000000002
F7
F19.440000000000001
ttRp100
sS'CT'
p101
g9
(g10
g11
(F7
F19.440000000000001
F6
F16.670000000000002
ttRp102
sssS'Bases'
p103
(dp104
S'UnalignedBases'
p105
g9
(g10
g11
(F11889356
F97.799999999999997
F0
F0
ttRp106
sS'AlignedBases'
p107
g9
(g10
g11
(F267749
F2.2000000000000002
F35923
F100
ttRp108
sS'TotalBases'
p109
g9
(g18
g11
(F12157105
F35923
ttRp110
ssS'Alignments'
p111
g3
(g4
tRp112
S'1-to-1'
p113
(dp114
S'TotalLength'
p115
g9
(g18
g11
(F40526
F40175
ttRp116
sS'AvgIdentity'
p117
g9
(g18
g11
(F97.920000000000002
F97.920000000000002
ttRp118
sg17
g9
(g18
g11
(F3
F3
ttRp119
sS'AvgLength'
p120
g9
(g18
g11
(F13508.67
F13391.67
ttRp121
ssS'M-to-M'
p122
(dp123
S'TotalLength'
p124
g9
(g18
g11
(F268328
F265245
ttRp125
sS'AvgIdentity'
p126
g9
(g18
g11
(F95.519999999999996
F95.519999999999996
ttRp127
sg17
g9
(g18
g11
(F114
F114
ttRp128
sS'AvgLength'
p129
g9
(g18
g11
(F2353.75
F2326.71
ttRp130
sssS'Features'
p131
(dp132
S'Insertions'
p133
g9
(g18
g11
(F233
F0
ttRp134
sS'TandemInsAvg'
p135
g9
(g18
g11
(F0
F0
ttRp136
sS'Relocations'
p137
g9
(g18
g11
(F0
F0
ttRp138
sS'InsertionAvg'
p139
g9
(g18
g11
(F49748.889999999999
F0
ttRp140
sS'Breakpoints'
p141
g9
(g18
g11
(F228
F119
ttRp142
sS'TandemInsSum'
p143
g9
(g18
g11
(F0
F0
ttRp144
sS'Inversions'
p145
g9
(g18
g11
(F1
F1
ttRp146
sS'Translocations'
p147
g9
(g18
g11
(F0
F0
ttRp148
sS'InsertionSum'
p149
g9
(g18
g11
(F11591491
F0
ttRp150
sS'TandemIns'
p151
g9
(g18
g11
(F0
F0
ttRp152
ssS'Sequences'
p153
(dp154
S'AlignedSeqs'
p155
g9
(g10
g11
(F15
F88.239999999999995
F2
F100
ttRp156
sS'TotalSeqs'
p157
g9
(g18
g11
(F17
F2
ttRp158
sS'UnalignedSeqs'
p159
g9
(g10
g11
(F2
F11.76
F0
F0
ttRp160
ss.