(dp1
S'SNPs'
p2
ccollections
defaultdict
p3
(c__builtin__
dict
p4
tRp5
S'TotalIndels'
p6
(dp7
S'C.'
p8
ccopy_reg
_reconstructor
p9
(cwub.wrappers.dnadiff
PropertyWithPerc
p10
c__builtin__
tuple
p11
(F2
F5.5599999999999996
F7
F19.440000000000001
ttRp12
sS'.A'
p13
g9
(g10
g11
(F8
F22.219999999999999
F2
F5.5599999999999996
ttRp14
sS'.C'
p15
g9
(g10
g11
(F7
F19.440000000000001
F2
F5.5599999999999996
ttRp16
sS'Number'
p17
g9
(cwub.wrappers.dnadiff
Property
p18
g11
(F36
F36
ttRp19
sS'A.'
p20
g9
(g10
g11
(F2
F5.5599999999999996
F8
F22.219999999999999
ttRp21
sS'T.'
p22
g9
(g10
g11
(F3
F8.3300000000000001
F11
F30.559999999999999
ttRp23
sS'G.'
p24
g9
(g10
g11
(F0
F0
F3
F8.3300000000000001
ttRp25
sS'.G'
p26
g9
(g10
g11
(F3
F8.3300000000000001
F0
F0
ttRp27
sS'.T'
p28
g9
(g10
g11
(F11
F30.559999999999999
F3
F8.3300000000000001
ttRp29
ssS'TotalGSNPs'
p30
(dp31
S'AC'
p32
g9
(g10
g11
(F0
F0
F2
F6.6699999999999999
ttRp33
sS'GT'
p34
g9
(g10
g11
(F0
F0
F0
F0
ttRp35
sS'AG'
p36
g9
(g10
g11
(F4
F13.33
F9
F30
ttRp37
sS'CA'
p38
g9
(g10
g11
(F2
F6.6699999999999999
F0
F0
ttRp39
sS'CG'
p40
g9
(g10
g11
(F1
F3.3300000000000001
F1
F3.3300000000000001
ttRp41
sg17
g9
(g18
g11
(F30
F30
ttRp42
sS'GC'
p43
g9
(g10
g11
(F1
F3.3300000000000001
F1
F3.3300000000000001
ttRp44
sS'AT'
p45
g9
(g10
g11
(F0
F0
F1
F3.3300000000000001
ttRp46
sS'GA'
p47
g9
(g10
g11
(F9
F30
F4
F13.33
ttRp48
sS'TG'
p49
g9
(g10
g11
(F0
F0
F0
F0
ttRp50
sS'TA'
p51
g9
(g10
g11
(F1
F3.3300000000000001
F0
F0
ttRp52
sS'TC'
p53
g9
(g10
g11
(F4
F13.33
F8
F26.670000000000002
ttRp54
sS'CT'
p55
g9
(g10
g11
(F8
F26.670000000000002
F4
F13.33
ttRp56
ssS'TotalGIndels'
p57
(dp58
S'C.'
p59
g9
(g10
g11
(F2
F20
F1
F10
ttRp60
sS'.A'
p61
g9
(g10
g11
(F2
F20
F1
F10
ttRp62
sS'.C'
p63
g9
(g10
g11
(F1
F10
F2
F20
ttRp64
sg17
g9
(g18
g11
(F10
F10
ttRp65
sS'A.'
p66
g9
(g10
g11
(F1
F10
F2
F20
ttRp67
sS'T.'
p68
g9
(g10
g11
(F3
F30
F1
F10
ttRp69
sS'G.'
p70
g9
(g10
g11
(F0
F0
F0
F0
ttRp71
sS'.G'
p72
g9
(g10
g11
(F0
F0
F0
F0
ttRp73
sS'.T'
p74
g9
(g10
g11
(F1
F10
F3
F30
ttRp75
ssS'TotalSNPs'
p76
(dp77
S'AC'
p78
g9
(g10
g11
(F3
F3.5699999999999998
F6
F7.1399999999999997
ttRp79
sS'GT'
p80
g9
(g10
g11
(F1
F1.1899999999999999
F0
F0
ttRp81
sS'AG'
p82
g9
(g10
g11
(F8
F9.5199999999999996
F23
F27.379999999999999
ttRp83
sS'CA'
p84
g9
(g10
g11
(F6
F7.1399999999999997
F3
F3.5699999999999998
ttRp85
sS'CG'
p86
g9
(g10
g11
(F3
F3.5699999999999998
F2
F2.3799999999999999
ttRp87
sg17
g9
(g18
g11
(F84
F84
ttRp88
sS'GC'
p89
g9
(g10
g11
(F2
F2.3799999999999999
F3
F3.5699999999999998
ttRp90
sS'AT'
p91
g9
(g10
g11
(F4
F4.7599999999999998
F2
F2.3799999999999999
ttRp92
sS'GA'
p93
g9
(g10
g11
(F23
F27.379999999999999
F8
F9.5199999999999996
ttRp94
sS'TG'
p95
g9
(g10
g11
(F0
F0
F1
F1.1899999999999999
ttRp96
sS'TA'
p97
g9
(g10
g11
(F2
F2.3799999999999999
F4
F4.7599999999999998
ttRp98
sS'TC'
p99
g9
(g10
g11
(F15
F17.859999999999999
F17
F20.239999999999998
ttRp100
sS'CT'
p101
g9
(g10
g11
(F17
F20.239999999999998
F15
F17.859999999999999
ttRp102
sssS'Bases'
p103
(dp104
S'UnalignedBases'
p105
g9
(g10
g11
(F11890874
F97.810000000000002
F0
F0
ttRp106
sS'AlignedBases'
p107
g9
(g10
g11
(F266231
F2.1899999999999999
F36098
F100
ttRp108
sS'TotalBases'
p109
g9
(g18
g11
(F12157105
F36098
ttRp110
ssS'Alignments'
p111
g3
(g4
tRp112
S'1-to-1'
p113
(dp114
S'TotalLength'
p115
g9
(g18
g11
(F40323
F40413
ttRp116
sS'AvgIdentity'
p117
g9
(g18
g11
(F98.840000000000003
F98.840000000000003
ttRp118
sg17
g9
(g18
g11
(F3
F3
ttRp119
sS'AvgLength'
p120
g9
(g18
g11
(F13441
F13471
ttRp121
ssS'M-to-M'
p122
(dp123
S'TotalLength'
p124
g9
(g18
g11
(F266806
F267024
ttRp125
sS'AvgIdentity'
p126
g9
(g18
g11
(F96.700000000000003
F96.700000000000003
ttRp127
sg17
g9
(g18
g11
(F131
F131
ttRp128
sS'AvgLength'
p129
g9
(g18
g11
(F2036.6900000000001
F2038.3499999999999
ttRp130
sssS'Features'
p131
(dp132
S'Insertions'
p133
g9
(g18
g11
(F269
F0
ttRp134
sS'TandemInsAvg'
p135
g9
(g18
g11
(F0
F0
ttRp136
sS'Relocations'
p137
g9
(g18
g11
(F0
F0
ttRp138
sS'InsertionAvg'
p139
g9
(g18
g11
(F44727.059999999998
F0
ttRp140
sS'Breakpoints'
p141
g9
(g18
g11
(F262
F149
ttRp142
sS'TandemInsSum'
p143
g9
(g18
g11
(F0
F0
ttRp144
sS'Inversions'
p145
g9
(g18
g11
(F1
F1
ttRp146
sS'Translocations'
p147
g9
(g18
g11
(F0
F0
ttRp148
sS'InsertionSum'
p149
g9
(g18
g11
(F12031578
F0
ttRp150
sS'TandemIns'
p151
g9
(g18
g11
(F0
F0
ttRp152
ssS'Sequences'
p153
(dp154
S'AlignedSeqs'
p155
g9
(g10
g11
(F16
F94.120000000000005
F2
F100
ttRp156
sS'TotalSeqs'
p157
g9
(g18
g11
(F17
F2
ttRp158
sS'UnalignedSeqs'
p159
g9
(g10
g11
(F1
F5.8799999999999999
F0
F0
ttRp160
ss.