(dp1
S'Coverage'
p2
cnumpy.core.multiarray
scalar
p3
(cnumpy
dtype
p4
(S'f8'
I0
I1
tRp5
(I3
S'<'
NNNI-1
I-1
I0
tbS'3{\xbd\xf6\xdcp\x9c?'
tRp6
sS'Accuracy'
p7
g3
(g5
S'\x83_\x91\xd1\xfd\xa9\xef?'
tRp8
s.